	.file	"main.c"
	.def	___main;	.scl	2;	.type	32;	.endef
	.section .rdata,"dr"
LC1:
	.ascii "\0"
LC2:
	.ascii "title [Windows Activer]\0"
LC3:
	.ascii "color 7d\0"
LC4:
	.ascii "cls\0"
	.align 4
LC5:
	.ascii " _       ___           __                  \12| |     / (_)___  ____/ /___ _      _______\12| | /| / / / __ \\/ __  / __ \\ | /| / / ___/\12| |/ |/ / / / / / /_/ / /_/ / |/ |/ (__  ) \12|__/|__/_/_/ /_/\\__,_/\\____/|__/|__/____/  \12                                           \12\0"
	.align 4
LC6:
	.ascii "\273\266\323\255\312\271\323\303WindowsActiver\243\254\307\353\310\267\261\243\264\313\263\314\320\362\322\324\271\334\300\355\324\261\311\355\267\335\324\313\320\320\241\243\0"
	.align 4
LC7:
	.ascii "\260\264\273\330\263\265\274\374\274\314\320\370\243\254\267\361\324\362\260\264\317\302Alt\265\304\315\254\312\261\260\264F4\300\264\271\330\261\325\264\313\263\314\320\362...\0"
	.align 4
LC8:
	.ascii " -----------------------\12|\326\367\262\313\265\245>                |\12 -----------------------\12|1.|\327\324\266\257\274\244\273\356Windows     |\12|2.|\312\326\266\257\274\244\273\356Windows     |\12|3.|\271\330\323\332WindowsActiver  |\12|4.|\262\351\277\264Windows\260\346\261\276     |\12|5.|\262\351\277\264Windows\274\244\273\356\327\264\314\254 |\12|6.|\315\313\263\366WindowsActiver  |\12 -----------------------\12\307\353\312\344\310\353\266\324\323\246\312\375\327\326\300\264\321\241\324\361\321\241\317\356\243\272\0"
LC9:
	.ascii "%d\0"
LC10:
	.ascii "AutoKMS Mode::\0"
	.align 4
LC11:
	.ascii " ----------------------------------\12|\262\313\265\245>\327\324\266\257\274\244\273\356Windows>              |\12 ----------------------------------\12|\321\241\324\361\304\343\322\252\274\244\273\356\265\304Windows\262\331\327\367\317\265\315\263\260\346\261\276: |\12 ----------------------------------\0"
	.align 4
LC12:
	.ascii "|1.|WindowsXP \310\316\322\342\320\315\272\305              |\12|2.|Windows7 \310\316\322\342\320\315\272\305               |\12|3.|Windows10 \327\250\322\265\260\346                |\12|4.|Windows10 \306\363\322\265\260\346                |\12|5.|Windows8 \327\250\322\265\260\346                 |\12|6.|Windows8 \301\343\312\333\260\346Pro              |\12|7.|Windows10 \274\322\315\245\260\346                |\12 ----------------------------------\12|0.|\267\265\273\330\265\275\326\367\262\313\265\245                    |\12 ----------------------------------\12\12\307\353\312\344\310\353\266\324\323\246\312\375\327\326\300\264\321\241\324\361\321\241\317\356\243\272\0"
LC13:
	.ascii "KMS\0"
	.align 4
LC14:
	.ascii " --------------------------------------\12|\262\313\265\245>\312\326\266\257\274\244\273\356Windows>                 |\12 --------------------------------------\12|\307\353\312\344\310\353\304\343\265\304Windows\262\372\306\267\303\334\324\277             |\12|(\324\332\304\343\265\304\260\262\327\260\275\351\326\312\260\374\327\260\272\320\311\317\265\304\273\306\311\253\262\273\270\311\275\272\311\317)|\12 --------------------------------------\12\312\344\310\353\262\372\306\267\303\334\324\277\275\370\320\320\274\244\273\356\273\362\312\344\310\353B\273\330\265\275\326\367\262\313\265\245:\0"
LC15:
	.ascii "b\0"
LC16:
	.ascii "copyrightverbose\0"
	.align 4
LC17:
	.ascii "WindowsActiver,%s\12\12\313\371\323\320\310\250\271\351\12(C)MicroGC-PCs;\12(C)MicroGC-Creative;\12(C)lmsdscav;\12(C)lxStd.Jeskin;\12(C)lxStd.ServGr;\12(C)lxStd-ProjGr\12\12\275\342\312\315\310\250\271\351\12(C)Copyright 2019-2022 MicroGC-PGC.\12(C)Copyright 2019-2022 lxStd Org.\12(C)Copyright 2019-2022 lxStd Org._ProjGr FS.\12\261\243\301\364\322\273\307\320\310\250\300\373\241\243\12\12\260\346\310\250\320\305\317\242\266\257\314\254\301\264\275\323\277\342lxStd.lxlib.Copyright.Verb.fmt-By lmsdscav;\12\12\270\275\243\272\12%s\12\260\264\273\330\263\265\274\374\273\330\265\275\326\367\322\263\303\346...\12\0"
LC18:
	.ascii "start winver\0"
LC19:
	.ascii "start slmgr /dlv\0"
	.align 4
LC0:
	.ascii "\260\346\310\250\320\305\317\242\243\250\325\346\243\251\243\272\261\276\263\314\320\362\241\242\317\356\304\277\315\352\310\253\323\311lmsdscav\266\300\301\242\315\352\263\311\243\254\326\256\313\371\322\324\320\264MicroGC\243\254\312\307\322\362\316\252\306\310\262\273\265\303\322\321\243\254\325\342\312\364\323\332\317\356\304\277\272\317\327\367\241\243\310\316\272\316\316\312\314\342\307\353\262\273\322\252\310\245\325\322MicroGC\243\254\322\362\316\252\313\375\301\254\325\342\270\366\263\314\320\362\265\304\324\264\264\372\302\353\266\274\303\273\323\320\243\254\270\371\261\276\262\273\277\311\304\334\270\370\304\343\267\326\316\366\316\312\314\342\241\243\263\314\320\362\304\313\326\301KMS\267\376\316\361\306\367\276\371\323\311lmsdscav\314\341\271\251\243\254\323\353MicroGC\272\301\316\336\271\330\317\265\241\243\314\330\264\313\311\371\303\367\243\272\261\276\263\314\320\362\241\242\317\356\304\277\264\323\315\267\265\275\316\262\266\274\312\307lmsdscav\266\300\301\242\315\352\263\311\243\254\326\301\323\332\272\363\300\264\265\304\260\346\310\250\320\305\317\242\322\324\274\260\323\320\320\251\316\304\327\326\262\305\312\307MicroGC\310\303\316\322\243\250lmsdscav\243\251\270\304\265\304\243\254\316\322\316\336\267\250\276\334\276\370\243\254\326\273\272\303\325\342\321\371\243\254\265\253\312\307\243\254\307\247\315\362\274\307\327\241\243\254\325\342\270\366\263\314\320\362\243\272\312\307lmsdscav\265\304!!!\312\307lmsdscav\265\304!!!\312\307lmsdscav\265\304!!!\262\273\322\252\261\273\303\324\273\363\301\313\243\241\12\0"
	.space 2538
	.text
	.globl	_main
	.def	_main;	.scl	2;	.type	32;	.endef
_main:
LFB13:
	.cfi_startproc
	pushl	%ebp
	.cfi_def_cfa_offset 8
	.cfi_offset 5, -8
	movl	%esp, %ebp
	.cfi_def_cfa_register 5
	pushl	%edi
	pushl	%esi
	pushl	%ebx
	andl	$-16, %esp
	movl	$6432, %eax
	call	___chkstk_ms
	subl	%eax, %esp
	.cfi_offset 7, -12
	.cfi_offset 6, -16
	.cfi_offset 3, -20
	call	___main
	leal	3423(%esp), %eax
	movl	$LC0, %ebx
	movl	$462, %edx
	movl	(%ebx), %ecx
	movl	%ecx, (%eax)
	movl	-4(%ebx,%edx), %ecx
	movl	%ecx, -4(%eax,%edx)
	leal	4(%eax), %edi
	andl	$-4, %edi
	subl	%edi, %eax
	subl	%eax, %ebx
	addl	%eax, %edx
	andl	$-4, %edx
	movl	%edx, %eax
	shrl	$2, %eax
	movl	%ebx, %esi
	movl	%eax, %ecx
	rep movsl
	leal	3885(%esp), %eax
	movl	$2538, %ecx
	movl	$0, %ebx
	movl	%ebx, (%eax)
	movl	%ebx, -4(%eax,%ecx)
	leal	4(%eax), %edx
	andl	$-4, %edx
	subl	%edx, %eax
	addl	%eax, %ecx
	andl	$-4, %ecx
	shrl	$2, %ecx
	movl	%edx, %edi
	movl	%ebx, %eax
	rep stosl
	movl	$1851877443, 423(%esp)
	movl	$1330406759, 427(%esp)
	movl	$-752862649, 431(%esp)
	movl	$-1045447739, 435(%esp)
	movl	$-1589029429, 439(%esp)
	movl	$-1193357149, 443(%esp)
	movl	$-842284604, 447(%esp)
	movl	$-1578454596, 451(%esp)
	movl	$2723, 455(%esp)
	leal	459(%esp), %eax
	movl	$2964, %ecx
	movl	$0, %ebx
	movl	%ebx, (%eax)
	movl	%ebx, -4(%eax,%ecx)
	leal	4(%eax), %edx
	andl	$-4, %edx
	subl	%edx, %eax
	addl	%eax, %ecx
	andl	$-4, %ecx
	shrl	$2, %ecx
	movl	%edx, %edi
	movl	%ebx, %eax
	rep stosl
	movl	$1752198209, 383(%esp)
	movl	$774987617, 387(%esp)
	movl	$811544626, 391(%esp)
	movl	$943272240, 395(%esp)
	movl	$54, 399(%esp)
	movl	$0, 403(%esp)
	movl	$0, 407(%esp)
	movl	$0, 411(%esp)
	movl	$0, 415(%esp)
	movl	$0, 419(%esp)
	movl	$LC1, %eax
	movb	%al, 6423(%esp)
	movl	$0, 6428(%esp)
	movl	$959853143, 350(%esp)
	movl	$1180118350, 354(%esp)
	movl	$760764231, 358(%esp)
	movl	$960714329, 362(%esp)
	movl	$1244933442, 366(%esp)
	movl	$758727478, 370(%esp)
	movl	$1194539092, 374(%esp)
	movw	$88, 378(%esp)
	movl	$1380995150, 320(%esp)
	movl	$1464216889, 324(%esp)
	movl	$760759108, 328(%esp)
	movl	$943927876, 332(%esp)
	movl	$944254282, 336(%esp)
	movl	$759902775, 340(%esp)
	movl	$877943090, 344(%esp)
	movw	$51, 348(%esp)
	movl	$1246252595, 290(%esp)
	movl	$1462971703, 294(%esp)
	movl	$759910743, 298(%esp)
	movl	$1413894708, 302(%esp)
	movl	$1178086728, 306(%esp)
	movl	$760826440, 310(%esp)
	movl	$1364808272, 314(%esp)
	movw	$72, 318(%esp)
	movl	$859977560, 260(%esp)
	movl	$1313287498, 264(%esp)
	movl	$759321686, 268(%esp)
	movl	$1144537681, 272(%esp)
	movl	$1263152434, 276(%esp)
	movl	$758658115, 280(%esp)
	movl	$1364023106, 284(%esp)
	movw	$72, 288(%esp)
	movl	$961562196, 230(%esp)
	movl	$1129721177, 234(%esp)
	movl	$760230745, 238(%esp)
	movl	$860378710, 242(%esp)
	movl	$1480076628, 246(%esp)
	movl	$759382872, 250(%esp)
	movl	$1496598093, 254(%esp)
	movw	$75, 258(%esp)
	movl	$861426253, 200(%esp)
	movl	$926166342, 204(%esp)
	movl	$760494402, 208(%esp)
	movl	$926430258, 212(%esp)
	movl	$1464544586, 216(%esp)
	movl	$759582027, 220(%esp)
	movl	$1113018450, 224(%esp)
	movw	$89, 228(%esp)
	movl	$1264013635, 170(%esp)
	movl	$1128475955, 174(%esp)
	movl	$760826457, 178(%esp)
	movl	$1178882388, 182(%esp)
	movl	$1211247958, 186(%esp)
	movl	$760366154, 190(%esp)
	movl	$843199319, 194(%esp)
	movw	$77, 198(%esp)
	movl	$1196701521, 140(%esp)
	movl	$1364012344, 144(%esp)
	movl	$759906867, 148(%esp)
	movl	$1364740178, 152(%esp)
	movl	$1146694979, 156(%esp)
	movl	$759450200, 160(%esp)
	movl	$1295405366, 164(%esp)
	movw	$51, 168(%esp)
	movl	$1145526339, 110(%esp)
	movl	$1346841924, 114(%esp)
	movl	$758268466, 118(%esp)
	movl	$1465338706, 122(%esp)
	movl	$1195912516, 126(%esp)
	movl	$760825907, 130(%esp)
	movl	$927614038, 134(%esp)
	movw	$74, 138(%esp)
	movl	$1480153172, 80(%esp)
	movl	$943271236, 84(%esp)
	movl	$760624974, 88(%esp)
	movl	$1364023094, 92(%esp)
	movl	$1480731958, 96(%esp)
	movl	$759645751, 100(%esp)
	movl	$961624136, 104(%esp)
	movw	$57, 108(%esp)
	movl	$LC2, (%esp)
	call	_system
	movl	$LC3, (%esp)
	call	_system
	movl	$LC4, (%esp)
	call	_system
	movl	$LC5, (%esp)
	call	_puts
	movl	$LC6, (%esp)
	call	_puts
	movl	$LC7, (%esp)
	call	_puts
	leal	380(%esp), %eax
	movl	%eax, (%esp)
	call	_gets
	jmp	L2
L26:
	movl	$0, 76(%esp)
	movl	$LC4, (%esp)
	call	_system
	movl	$LC8, (%esp)
	call	_printf
	leal	76(%esp), %eax
	movl	%eax, 4(%esp)
	movl	$LC9, (%esp)
	call	_scanf
	call	_getchar
	movl	$LC4, (%esp)
	call	_system
	movl	76(%esp), %eax
	cmpl	$6, %eax
	ja	L28
	movl	L5(,%eax,4), %eax
	jmp	*%eax
	.section .rdata,"dr"
	.align 4
L5:
	.long	L28
	.long	L4
	.long	L6
	.long	L7
	.long	L8
	.long	L9
	.long	L10
	.text
L4:
	movl	$LC10, (%esp)
	call	_puts
	movl	$0, 6424(%esp)
	movl	$0, 72(%esp)
	jmp	L11
L22:
	movl	$LC11, (%esp)
	call	_puts
	movl	$LC12, (%esp)
	call	_printf
	leal	72(%esp), %eax
	movl	%eax, 4(%esp)
	movl	$LC9, (%esp)
	call	_scanf
	call	_getchar
	movl	72(%esp), %eax
	cmpl	$7, %eax
	ja	L12
	movl	L14(,%eax,4), %eax
	jmp	*%eax
	.section .rdata,"dr"
	.align 4
L14:
	.long	L13
	.long	L15
	.long	L16
	.long	L17
	.long	L18
	.long	L19
	.long	L20
	.long	L21
	.text
L15:
	movl	$1, 6424(%esp)
	leal	110(%esp), %eax
	movl	%eax, (%esp)
	call	_active
	jmp	L11
L16:
	movl	$1, 6424(%esp)
	leal	230(%esp), %eax
	movl	%eax, (%esp)
	call	_active
	jmp	L11
L17:
	movl	$1, 6424(%esp)
	leal	350(%esp), %eax
	movl	%eax, (%esp)
	call	_active
	jmp	L11
L18:
	movl	$1, 6424(%esp)
	leal	320(%esp), %eax
	movl	%eax, (%esp)
	call	_active
	jmp	L11
L19:
	movl	$1, 6424(%esp)
	leal	290(%esp), %eax
	movl	%eax, (%esp)
	call	_active
	jmp	L11
L20:
	movl	$1, 6424(%esp)
	leal	260(%esp), %eax
	movl	%eax, (%esp)
	call	_active
	jmp	L11
L21:
	movl	$1, 6424(%esp)
	leal	80(%esp), %eax
	movl	%eax, (%esp)
	call	_active
	jmp	L11
L13:
	movl	$1, 6424(%esp)
	jmp	L11
L12:
	movl	$0, 6424(%esp)
	nop
L11:
	cmpl	$1, 6424(%esp)
	jne	L22
	jmp	L2
L6:
	movl	$LC13, (%esp)
	call	_puts
	movl	$0, 22(%esp)
	leal	26(%esp), %eax
	movl	$46, %ecx
	movl	$0, %ebx
	movl	%ebx, (%eax)
	movl	%ebx, -4(%eax,%ecx)
	leal	4(%eax), %edx
	andl	$-4, %edx
	subl	%edx, %eax
	addl	%eax, %ecx
	andl	$-4, %ecx
	shrl	$2, %ecx
	movl	%edx, %edi
	movl	%ebx, %eax
	rep stosl
	movl	$LC14, (%esp)
	call	_printf
	leal	22(%esp), %eax
	movl	%eax, (%esp)
	call	_gets
	leal	22(%esp), %eax
	movl	%eax, 4(%esp)
	movl	$LC15, (%esp)
	call	_strcmpi
	testl	%eax, %eax
	je	L29
	movl	$LC16, 4(%esp)
	leal	22(%esp), %eax
	movl	%eax, (%esp)
	call	_strcmp
	testl	%eax, %eax
	jne	L25
	leal	3423(%esp), %eax
	movl	%eax, (%esp)
	call	_printf
	leal	380(%esp), %eax
	movl	%eax, (%esp)
	call	_gets
	jmp	L2
L25:
	leal	22(%esp), %eax
	movl	%eax, (%esp)
	call	_active
	jmp	L2
L7:
	leal	423(%esp), %eax
	movl	%eax, 8(%esp)
	leal	383(%esp), %eax
	movl	%eax, 4(%esp)
	movl	$LC17, (%esp)
	call	_printf
	leal	380(%esp), %eax
	movl	%eax, (%esp)
	call	_gets
	jmp	L2
L8:
	movl	$LC18, (%esp)
	call	_system
	jmp	L2
L9:
	movl	$LC19, (%esp)
	call	_system
	jmp	L2
L10:
	movl	$1, 6428(%esp)
	jmp	L2
L28:
	nop
	jmp	L2
L29:
	nop
L2:
	cmpl	$1, 6428(%esp)
	jne	L26
	movl	$0, %eax
	leal	-12(%ebp), %esp
	popl	%ebx
	.cfi_restore 3
	popl	%esi
	.cfi_restore 6
	popl	%edi
	.cfi_restore 7
	popl	%ebp
	.cfi_restore 5
	.cfi_def_cfa 4, 4
	ret
	.cfi_endproc
LFE13:
	.section .rdata,"dr"
	.align 4
LC20:
	.ascii "\325\375\324\332\273\330\301\343Windows\265\304KMS\267\376\316\361\306\367\311\350\266\250...\0"
LC21:
	.ascii "slmgr /ckms\0"
LC22:
	.ascii "\315\352\263\311\243\241\0"
	.align 4
LC23:
	.ascii "\325\375\324\332\311\276\263\375Windows\265\304\324\244\327\260\262\372\306\267\303\334\324\277...\0"
LC24:
	.ascii "slmgr /upk\0"
	.align 4
LC25:
	.ascii "\325\375\324\332\266\324Windows\265\304KMS\274\244\273\356\263\314\320\362\327\366\327\274\261\270...\0"
LC26:
	.ascii "\325\375\324\332\311\350\326\303Windows\265\304KMS\274\244\273\356\323\362...\0"
LC27:
	.ascii "slmgr /skms lxstd.top\0"
	.align 4
LC28:
	.ascii "\325\375\324\332\274\244\273\356Windows\262\242\274\354\262\342\274\244\273\356\327\264\314\254...\0"
LC29:
	.ascii "slmgr /ato\0"
LC30:
	.ascii "Windows\274\244\273\356\263\314\320\362\326\264\320\320\315\352\261\317\243\241\0"
LC31:
	.ascii "\307\353\260\264\273\330\263\265\274\374\274\314\320\370...\0"
	.text
	.globl	_active
	.def	_active;	.scl	2;	.type	32;	.endef
_active:
LFB14:
	.cfi_startproc
	pushl	%ebp
	.cfi_def_cfa_offset 8
	.cfi_offset 5, -8
	movl	%esp, %ebp
	.cfi_def_cfa_register 5
	pushl	%edi
	pushl	%ebx
	subl	$528, %esp
	.cfi_offset 7, -12
	.cfi_offset 3, -16
	movl	$1735224435, -511(%ebp)
	movl	$1764696178, -507(%ebp)
	movl	$2124656, -503(%ebp)
	leal	-499(%ebp), %eax
	movl	$488, %ecx
	movl	$0, %ebx
	movl	%ebx, (%eax)
	movl	%ebx, -4(%eax,%ecx)
	leal	4(%eax), %edx
	andl	$-4, %edx
	subl	%edx, %eax
	addl	%eax, %ecx
	andl	$-4, %ecx
	shrl	$2, %ecx
	movl	%edx, %edi
	movl	%ebx, %eax
	rep stosl
	movl	8(%ebp), %eax
	movl	%eax, 4(%esp)
	leal	-511(%ebp), %eax
	movl	%eax, (%esp)
	call	_strcat
	movl	$LC20, (%esp)
	call	_puts
	movl	$LC21, (%esp)
	call	_system
	movl	$LC22, (%esp)
	call	_puts
	movl	$LC23, (%esp)
	call	_puts
	movl	$LC24, (%esp)
	call	_system
	movl	$LC22, (%esp)
	call	_puts
	movl	$LC25, (%esp)
	call	_puts
	leal	-511(%ebp), %eax
	movl	%eax, (%esp)
	call	_system
	movl	$LC22, (%esp)
	call	_puts
	movl	$LC26, (%esp)
	call	_puts
	movl	$LC27, (%esp)
	call	_system
	movl	$LC22, (%esp)
	call	_puts
	movl	$LC28, (%esp)
	call	_puts
	movl	$LC29, (%esp)
	call	_system
	movl	$LC30, (%esp)
	call	_puts
	movl	$LC31, (%esp)
	call	_puts
	leal	-11(%ebp), %eax
	movl	%eax, (%esp)
	call	_gets
	nop
	addl	$528, %esp
	popl	%ebx
	.cfi_restore 3
	popl	%edi
	.cfi_restore 7
	popl	%ebp
	.cfi_restore 5
	.cfi_def_cfa 4, 4
	ret
	.cfi_endproc
LFE14:
	.ident	"GCC: (MinGW.org GCC-6.3.0-1) 6.3.0"
	.def	_system;	.scl	2;	.type	32;	.endef
	.def	_puts;	.scl	2;	.type	32;	.endef
	.def	_gets;	.scl	2;	.type	32;	.endef
	.def	_printf;	.scl	2;	.type	32;	.endef
	.def	_scanf;	.scl	2;	.type	32;	.endef
	.def	_getchar;	.scl	2;	.type	32;	.endef
	.def	_strcmpi;	.scl	2;	.type	32;	.endef
	.def	_strcmp;	.scl	2;	.type	32;	.endef
	.def	_strcat;	.scl	2;	.type	32;	.endef
