	.file	"main.c"
	.def	___main;	.scl	2;	.type	32;	.endef
	.section .rdata,"dr"
LC1:
	.ascii "\0"
LC2:
	.ascii "title MicroGC-Windows Activer\0"
LC3:
	.ascii "color 2e\0"
LC4:
	.ascii "cls\0"
	.align 4
LC5:
	.ascii "\273\266\323\255\312\271\323\303WindowsActiver\243\254\307\353\310\267\261\243\264\313\263\314\320\362\322\324\271\334\300\355\324\261\311\355\267\335\324\313\320\320\241\243\0"
	.align 4
LC6:
	.ascii "\260\264\310\316\322\342\274\374\274\314\320\370\243\254\267\361\324\362\260\264\317\302Alt\265\304\315\254\312\261\260\264F4\300\264\271\330\261\325\264\313\263\314\320\362...\0"
	.align 4
LC7:
	.ascii "1.\327\324\266\257\274\244\273\356Windows\12"
	.ascii "2.\312\326\266\257\274\244\273\356Windows\12"
	.ascii "3.\271\330\323\332WindowsActiver\12"
	.ascii "4.\262\351\277\264Windows\260\346\261\276\12"
	.ascii "5.\262\351\277\264Windows\274\244\273\356\327\264\314\254\12"
	.ascii "6.\315\313\263\366WindowsActiver\12\307\353\312\344\310\353\266\324\323\246\312\375\327\326\300\264\321\241\324\361\321\241\317\356\243\272\0"
LC8:
	.ascii "%d\0"
LC9:
	.ascii "AutoKMS Mode::\0"
	.align 4
LC10:
	.ascii "\262\313\265\245>\327\324\266\257\274\244\273\356Windows>\12\12\321\241\324\361\304\343\320\350\322\252\274\244\273\356\265\304Windows\262\331\327\367\317\265\315\263\260\346\261\276: \0"
	.align 4
LC11:
	.ascii "1.WindowsXP \310\316\322\342\320\315\272\305\12"
	.ascii "2.Windows7 \310\316\322\342\320\315\272\305\12"
	.ascii "3.Windows10 \327\250\322\265\260\346\12"
	.ascii "4.Windows10 \306\363\322\265\260\346\12"
	.ascii "5.Windows8 \327\250\322\265\260\346\12"
	.ascii "6.Windows8 \301\343\312\333\260\346Pro\12"
	.ascii "7.Windows10 \274\322\315\245\260\346\12"
	.ascii "0.\267\265\273\330\265\275\326\367\262\313\265\245\12\12\307\353\312\344\310\353\266\324\323\246\312\375\327\326\300\264\321\241\324\361\321\241\317\356\243\272\0"
LC12:
	.ascii "KMS\0"
	.align 4
LC13:
	.ascii "\262\313\265\245>\312\326\266\257\274\244\273\356Windows>\12\12\307\353\312\344\310\353\304\343\265\304Windows\262\372\306\267\303\334\324\277\243\250\324\332\304\343\265\304\260\262\327\260\275\351\326\312\260\374\327\260\272\320\311\317\265\304\273\306\311\253\262\273\270\311\275\272\311\317\243\251\273\362\312\344\310\353B\273\330\265\275\326\367\262\313\265\245:\0"
LC14:
	.ascii "b\0"
LC15:
	.ascii "copyrightverbose\0"
	.align 4
LC16:
	.ascii "WindowsActiver,%s\12\12\313\371\323\320\310\250\271\351\12(C)MicroGC-PCs;\12(C)MicroGC-Creative;\12(C)lmsdscav\12\12\275\342\312\315\310\250\271\351\12(C)Copyright 2019-2022 MicroGC-PGC.\12(C)Copyright 2019-2022 lxStd Org.\12\261\243\301\364\322\273\302\311\310\250\300\373\241\243\12\12\260\264\273\330\263\265\274\374\273\330\265\275\326\367\322\263\303\346...\12\0"
LC17:
	.ascii "start winver\0"
LC18:
	.ascii "start slmgr /dlv\0"
	.align 4
LC0:
	.ascii "\325\346\265\304\272\334\267\263\243\254\325\373\270\366\317\356\304\277\264\323\315\267\265\275\316\262\266\274\323\311lmsdscav\314\341\263\366~\262\337\273\256~\315\352\263\311\243\254\265\253\312\307\266\257\273\372\312\307MicroGC\265\304KMSActive\243\254\313\371\322\324\305\252\265\303\276\315\270\320\276\365\316\322\326\273\325\274\301\313\322\273\260\353\265\304\327\367\323\303\322\273\321\371\243\254\316\322\276\365\265\303\316\322\314\253\304\321\301\313\241\243\241\243\241\243\243\250MicroGC\275\320\316\322\270\304\316\304\327\326\243\254\310\273\272\363\260\321\313\375\265\304\320\305\317\242\274\323\311\317\301\313\243\254\325\373\265\303\313\371\323\320\310\250\317\361\312\307\313\375\265\304\322\273\321\371\243\251\316\322\322\262\312\307\267\376\301\313\243\254\262\273\326\252\265\300\270\303\324\365\303\264\260\354\241\243\316\322\326\252\265\300\320\264\327\242\312\315\322\252\261\273\261\340\322\353\306\367\264\362\265\364\243\254\313\371\322\324\276\315\320\264\325\342\300\357\241\243\313\265\303\367\243\272\325\373\270\366\317\356\304\277\323\311lmsdscav\266\300\301\242\315\352\263\311\243\241\325\373\270\366\317\356\304\277\323\311lmsdscav\266\300\301\242\315\352\263\311\243\241\325\373\270\366\317\356\304\277\323\311lmsdscav\266\300\301\242\315\352\263\311\243\241\243\241\243\241\262\273\322\252\277\264\327\305MicroGC\316\312\325\342\270\366\317\356\304\277\301\313\243\254\325\342\270\366\317\356\304\277\312\307\316\322\265\304\243\241\12\0"
	.space 580
	.text
	.globl	_main
	.def	_main;	.scl	2;	.type	32;	.endef
_main:
LFB13:
	.cfi_startproc
	pushl	%ebp
	.cfi_def_cfa_offset 8
	.cfi_offset 5, -8
	movl	%esp, %ebp
	.cfi_def_cfa_register 5
	pushl	%edi
	pushl	%esi
	pushl	%ebx
	andl	$-16, %esp
	subl	$1440, %esp
	.cfi_offset 7, -12
	.cfi_offset 6, -16
	.cfi_offset 3, -20
	call	___main
	leal	431(%esp), %eax
	movl	$LC0, %ebx
	movl	$420, %edx
	movl	(%ebx), %ecx
	movl	%ecx, (%eax)
	movl	-4(%ebx,%edx), %ecx
	movl	%ecx, -4(%eax,%edx)
	leal	4(%eax), %edi
	andl	$-4, %edi
	subl	%edi, %eax
	subl	%eax, %ebx
	addl	%eax, %edx
	andl	$-4, %edx
	movl	%edx, %eax
	shrl	$2, %eax
	movl	%ebx, %esi
	movl	%eax, %ecx
	rep movsl
	leal	851(%esp), %eax
	movl	$580, %ecx
	movl	$0, %ebx
	movl	%ebx, (%eax)
	movl	%ebx, -4(%eax,%ecx)
	leal	4(%eax), %edx
	andl	$-4, %edx
	subl	%edx, %eax
	addl	%eax, %ecx
	andl	$-4, %ecx
	shrl	$2, %ecx
	movl	%edx, %edi
	movl	%ebx, %eax
	rep stosl
	movl	$959328630, 391(%esp)
	movl	$13358, 395(%esp)
	leal	399(%esp), %eax
	movl	$32, %ecx
	movl	$0, %ebx
	movl	%ebx, (%eax)
	movl	%ebx, -4(%eax,%ecx)
	leal	4(%eax), %edx
	andl	$-4, %edx
	subl	%edx, %eax
	addl	%eax, %ecx
	andl	$-4, %ecx
	andl	$-4, %ecx
	movl	$0, %eax
L2:
	movl	%ebx, (%edx,%eax)
	addl	$4, %eax
	cmpl	%ecx, %eax
	jb	L2
	addl	%eax, %edx
	movl	$LC1, %eax
	movb	%al, 1431(%esp)
	movl	$0, 1436(%esp)
	movl	$959853143, 358(%esp)
	movl	$1180118350, 362(%esp)
	movl	$760764231, 366(%esp)
	movl	$960714329, 370(%esp)
	movl	$1244933442, 374(%esp)
	movl	$758727478, 378(%esp)
	movl	$1194539092, 382(%esp)
	movw	$88, 386(%esp)
	movl	$1380995150, 328(%esp)
	movl	$1464216889, 332(%esp)
	movl	$760759108, 336(%esp)
	movl	$943927876, 340(%esp)
	movl	$944254282, 344(%esp)
	movl	$759902775, 348(%esp)
	movl	$877943090, 352(%esp)
	movw	$51, 356(%esp)
	movl	$1246252595, 298(%esp)
	movl	$1462971703, 302(%esp)
	movl	$759910743, 306(%esp)
	movl	$1413894708, 310(%esp)
	movl	$1178086728, 314(%esp)
	movl	$760826440, 318(%esp)
	movl	$1364808272, 322(%esp)
	movw	$72, 326(%esp)
	movl	$859977560, 268(%esp)
	movl	$1313287498, 272(%esp)
	movl	$759321686, 276(%esp)
	movl	$1144537681, 280(%esp)
	movl	$1263152434, 284(%esp)
	movl	$758658115, 288(%esp)
	movl	$1364023106, 292(%esp)
	movw	$72, 296(%esp)
	movl	$961562196, 238(%esp)
	movl	$1129721177, 242(%esp)
	movl	$760230745, 246(%esp)
	movl	$860378710, 250(%esp)
	movl	$1480076628, 254(%esp)
	movl	$759382872, 258(%esp)
	movl	$1496598093, 262(%esp)
	movw	$75, 266(%esp)
	movl	$861426253, 208(%esp)
	movl	$926166342, 212(%esp)
	movl	$760494402, 216(%esp)
	movl	$926430258, 220(%esp)
	movl	$1464544586, 224(%esp)
	movl	$759582027, 228(%esp)
	movl	$1113018450, 232(%esp)
	movw	$89, 236(%esp)
	movl	$1264013635, 178(%esp)
	movl	$1128475955, 182(%esp)
	movl	$760826457, 186(%esp)
	movl	$1178882388, 190(%esp)
	movl	$1211247958, 194(%esp)
	movl	$760366154, 198(%esp)
	movl	$843199319, 202(%esp)
	movw	$77, 206(%esp)
	movl	$1196701521, 148(%esp)
	movl	$1364012344, 152(%esp)
	movl	$759906867, 156(%esp)
	movl	$1364740178, 160(%esp)
	movl	$1146694979, 164(%esp)
	movl	$759450200, 168(%esp)
	movl	$1295405366, 172(%esp)
	movw	$51, 176(%esp)
	movl	$1145526339, 118(%esp)
	movl	$1346841924, 122(%esp)
	movl	$758268466, 126(%esp)
	movl	$1465338706, 130(%esp)
	movl	$1195912516, 134(%esp)
	movl	$760825907, 138(%esp)
	movl	$927614038, 142(%esp)
	movw	$74, 146(%esp)
	movl	$1480153172, 88(%esp)
	movl	$943271236, 92(%esp)
	movl	$760624974, 96(%esp)
	movl	$1364023094, 100(%esp)
	movl	$1480731958, 104(%esp)
	movl	$759645751, 108(%esp)
	movl	$961624136, 112(%esp)
	movw	$57, 116(%esp)
	movl	$LC2, (%esp)
	call	_system
	movl	$LC3, (%esp)
	call	_system
	movl	$LC4, (%esp)
	call	_system
	movl	$LC5, (%esp)
	call	_puts
	movl	$LC6, (%esp)
	call	_puts
	leal	388(%esp), %eax
	movl	%eax, (%esp)
	call	_gets
	jmp	L4
L28:
	movl	$0, 84(%esp)
	movl	$LC4, (%esp)
	call	_system
	movl	$LC7, (%esp)
	call	_printf
	leal	84(%esp), %eax
	movl	%eax, 4(%esp)
	movl	$LC8, (%esp)
	call	_scanf
	call	_getchar
	movl	$LC4, (%esp)
	call	_system
	movl	84(%esp), %eax
	cmpl	$6, %eax
	ja	L30
	movl	L7(,%eax,4), %eax
	jmp	*%eax
	.section .rdata,"dr"
	.align 4
L7:
	.long	L30
	.long	L6
	.long	L8
	.long	L9
	.long	L10
	.long	L11
	.long	L12
	.text
L6:
	movl	$LC9, (%esp)
	call	_puts
	movl	$0, 1432(%esp)
	movl	$0, 80(%esp)
	jmp	L13
L24:
	movl	$LC10, (%esp)
	call	_puts
	movl	$LC11, (%esp)
	call	_printf
	leal	80(%esp), %eax
	movl	%eax, 4(%esp)
	movl	$LC8, (%esp)
	call	_scanf
	movl	80(%esp), %eax
	cmpl	$7, %eax
	ja	L14
	movl	L16(,%eax,4), %eax
	jmp	*%eax
	.section .rdata,"dr"
	.align 4
L16:
	.long	L15
	.long	L17
	.long	L18
	.long	L19
	.long	L20
	.long	L21
	.long	L22
	.long	L23
	.text
L17:
	movl	$1, 1432(%esp)
	leal	118(%esp), %eax
	movl	%eax, (%esp)
	call	_active
	jmp	L13
L18:
	movl	$1, 1432(%esp)
	leal	238(%esp), %eax
	movl	%eax, (%esp)
	call	_active
	jmp	L13
L19:
	movl	$1, 1432(%esp)
	leal	358(%esp), %eax
	movl	%eax, (%esp)
	call	_active
	jmp	L13
L20:
	movl	$1, 1432(%esp)
	leal	328(%esp), %eax
	movl	%eax, (%esp)
	call	_active
	jmp	L13
L21:
	movl	$1, 1432(%esp)
	leal	298(%esp), %eax
	movl	%eax, (%esp)
	call	_active
	jmp	L13
L22:
	movl	$1, 1432(%esp)
	leal	268(%esp), %eax
	movl	%eax, (%esp)
	call	_active
	jmp	L13
L23:
	movl	$1, 1432(%esp)
	leal	88(%esp), %eax
	movl	%eax, (%esp)
	call	_active
	jmp	L13
L15:
	movl	$1, 1432(%esp)
	jmp	L13
L14:
	movl	$0, 1432(%esp)
	nop
L13:
	cmpl	$1, 1432(%esp)
	jne	L24
	jmp	L4
L8:
	movl	$LC12, (%esp)
	call	_puts
	movl	$0, 30(%esp)
	leal	34(%esp), %eax
	movl	$46, %ecx
	movl	$0, %ebx
	movl	%ebx, (%eax)
	movl	%ebx, -4(%eax,%ecx)
	leal	4(%eax), %edx
	andl	$-4, %edx
	subl	%edx, %eax
	addl	%eax, %ecx
	andl	$-4, %ecx
	shrl	$2, %ecx
	movl	%edx, %edi
	movl	%ebx, %eax
	rep stosl
	movl	$LC13, (%esp)
	call	_printf
	leal	30(%esp), %eax
	movl	%eax, (%esp)
	call	_gets
	leal	30(%esp), %eax
	movl	%eax, 4(%esp)
	movl	$LC14, (%esp)
	call	_strcmpi
	testl	%eax, %eax
	je	L31
	movl	$LC15, 4(%esp)
	leal	30(%esp), %eax
	movl	%eax, (%esp)
	call	_strcmp
	testl	%eax, %eax
	jne	L27
	leal	431(%esp), %eax
	movl	%eax, (%esp)
	call	_printf
	leal	388(%esp), %eax
	movl	%eax, (%esp)
	call	_gets
	jmp	L4
L27:
	leal	30(%esp), %eax
	movl	%eax, (%esp)
	call	_active
	jmp	L4
L9:
	leal	391(%esp), %eax
	movl	%eax, 4(%esp)
	movl	$LC16, (%esp)
	call	_printf
	leal	388(%esp), %eax
	movl	%eax, (%esp)
	call	_gets
	jmp	L4
L10:
	movl	$LC17, (%esp)
	call	_system
	jmp	L4
L11:
	movl	$LC18, (%esp)
	call	_system
	jmp	L4
L12:
	movl	$1, 1436(%esp)
	jmp	L4
L30:
	nop
	jmp	L4
L31:
	nop
L4:
	cmpl	$1, 1436(%esp)
	jne	L28
	movl	$0, %eax
	leal	-12(%ebp), %esp
	popl	%ebx
	.cfi_restore 3
	popl	%esi
	.cfi_restore 6
	popl	%edi
	.cfi_restore 7
	popl	%ebp
	.cfi_restore 5
	.cfi_def_cfa 4, 4
	ret
	.cfi_endproc
LFE13:
	.section .rdata,"dr"
LC19:
	.ascii "\325\375\324\332\275\342\263\375\303\330\324\277\260\363\266\250...\0"
LC20:
	.ascii "slmgr /ckms\0"
LC21:
	.ascii "slmgr /upk\0"
LC22:
	.ascii "\315\352\263\311\243\241\0"
LC23:
	.ascii "\325\375\324\332\266\324kms\275\370\320\320\327\274\261\270...\0"
LC24:
	.ascii "\325\375\324\332\311\350\326\303\274\244\273\356\323\362\0"
LC25:
	.ascii "slmgr /skms lxstd.top\0"
LC26:
	.ascii "\325\375\324\332\274\244\273\356\262\242\274\354\262\342\275\341\271\373\0"
LC27:
	.ascii "slmgr /ato\0"
LC28:
	.ascii "\262\331\327\367\315\352\263\311\0"
	.text
	.globl	_active
	.def	_active;	.scl	2;	.type	32;	.endef
_active:
LFB14:
	.cfi_startproc
	pushl	%ebp
	.cfi_def_cfa_offset 8
	.cfi_offset 5, -8
	movl	%esp, %ebp
	.cfi_def_cfa_register 5
	pushl	%edi
	subl	$532, %esp
	.cfi_offset 7, -12
	movl	$1735224435, -508(%ebp)
	movl	$1764696178, -504(%ebp)
	movl	$2124656, -500(%ebp)
	leal	-496(%ebp), %edx
	movl	$0, %eax
	movl	$122, %ecx
	movl	%edx, %edi
	rep stosl
	movl	8(%ebp), %eax
	movl	%eax, 4(%esp)
	leal	-508(%ebp), %eax
	movl	%eax, (%esp)
	call	_strcat
	movl	$LC19, (%esp)
	call	_puts
	movl	$LC20, (%esp)
	call	_system
	movl	$LC21, (%esp)
	call	_system
	movl	$LC22, (%esp)
	call	_puts
	movl	$LC23, (%esp)
	call	_puts
	leal	-508(%ebp), %eax
	movl	%eax, (%esp)
	call	_system
	movl	$LC22, (%esp)
	call	_puts
	movl	$LC24, (%esp)
	call	_puts
	movl	$LC25, (%esp)
	call	_system
	movl	$LC22, (%esp)
	call	_puts
	movl	$LC26, (%esp)
	call	_puts
	movl	$LC27, (%esp)
	call	_system
	movl	$LC28, (%esp)
	call	_puts
	nop
	addl	$532, %esp
	popl	%edi
	.cfi_restore 7
	popl	%ebp
	.cfi_restore 5
	.cfi_def_cfa 4, 4
	ret
	.cfi_endproc
LFE14:
	.ident	"GCC: (MinGW.org GCC-6.3.0-1) 6.3.0"
	.def	_system;	.scl	2;	.type	32;	.endef
	.def	_puts;	.scl	2;	.type	32;	.endef
	.def	_gets;	.scl	2;	.type	32;	.endef
	.def	_printf;	.scl	2;	.type	32;	.endef
	.def	_scanf;	.scl	2;	.type	32;	.endef
	.def	_getchar;	.scl	2;	.type	32;	.endef
	.def	_strcmpi;	.scl	2;	.type	32;	.endef
	.def	_strcmp;	.scl	2;	.type	32;	.endef
	.def	_strcat;	.scl	2;	.type	32;	.endef
